; ModuleID = '11/593.c'
source_filename = "11/593.c"
target datalayout = "e-m:e-p270:32:32-p271:32:32-p272:64:64-i64:64-f80:128-n8:16:32:64-S128"
target triple = "x86_64-pc-linux-gnu"

@__const.main.monthday = private unnamed_addr constant [12 x i32] [i32 31, i32 29, i32 31, i32 30, i32 31, i32 30, i32 31, i32 31, i32 30, i32 31, i32 30, i32 31], align 16
@.str = private unnamed_addr constant [7 x i8] c"%d%d%d\00", align 1
@.str.1 = private unnamed_addr constant [3 x i8] c"%d\00", align 1

; Function Attrs: noinline nounwind uwtable
define dso_local i32 @main() #0 {
  %1 = alloca i32, align 4
  %2 = alloca i32, align 4
  %3 = alloca i32, align 4
  %4 = alloca i32, align 4
  %5 = alloca i32, align 4
  %6 = alloca [12 x i32], align 16
  %7 = alloca i32, align 4
  store i32 0, i32* %1, align 4
  store i32 0, i32* %5, align 4
  %8 = bitcast [12 x i32]* %6 to i8*
  call void @llvm.memcpy.p0i8.p0i8.i64(i8* align 16 %8, i8* align 16 bitcast ([12 x i32]* @__const.main.monthday to i8*), i64 48, i1 false)
  %9 = call i32 (i8*, ...) @__isoc99_scanf(i8* getelementptr inbounds ([7 x i8], [7 x i8]* @.str, i64 0, i64 0), i32* %2, i32* %3, i32* %4)
  store i32 1, i32* %7, align 4
  br label %10

10:                                               ; preds = %22, %0
  %11 = load i32, i32* %7, align 4
  %12 = load i32, i32* %3, align 4
  %13 = icmp slt i32 %11, %12
  br i1 %13, label %14, label %25

14:                                               ; preds = %10
  %15 = load i32, i32* %7, align 4
  %16 = sub nsw i32 %15, 1
  %17 = sext i32 %16 to i64
  %18 = getelementptr inbounds [12 x i32], [12 x i32]* %6, i64 0, i64 %17
  %19 = load i32, i32* %18, align 4
  %20 = load i32, i32* %5, align 4
  %21 = add nsw i32 %20, %19
  store i32 %21, i32* %5, align 4
  br label %22

22:                                               ; preds = %14
  %23 = load i32, i32* %7, align 4
  %24 = add nsw i32 %23, 1
  store i32 %24, i32* %7, align 4
  br label %10

25:                                               ; preds = %10
  %26 = load i32, i32* %4, align 4
  %27 = load i32, i32* %5, align 4
  %28 = add nsw i32 %27, %26
  store i32 %28, i32* %5, align 4
  %29 = load i32, i32* %3, align 4
  %30 = icmp sgt i32 %29, 2
  br i1 %30, label %31, label %49

31:                                               ; preds = %25
  %32 = load i32, i32* %2, align 4
  %33 = icmp ne i32 %32, 0
  %34 = xor i1 %33, true
  %35 = zext i1 %34 to i32
  %36 = srem i32 %35, 4
  %37 = icmp eq i32 %36, 0
  br i1 %37, label %38, label %42

38:                                               ; preds = %31
  %39 = load i32, i32* %2, align 4
  %40 = srem i32 %39, 100
  %41 = icmp ne i32 %40, 0
  br i1 %41, label %46, label %42

42:                                               ; preds = %38, %31
  %43 = load i32, i32* %2, align 4
  %44 = srem i32 %43, 400
  %45 = icmp ne i32 %44, 0
  br i1 %45, label %46, label %49

46:                                               ; preds = %42, %38
  %47 = load i32, i32* %5, align 4
  %48 = sub nsw i32 %47, 1
  store i32 %48, i32* %5, align 4
  br label %49

49:                                               ; preds = %46, %42, %25
  %50 = load i32, i32* %5, align 4
  %51 = call i32 (i8*, ...) @printf(i8* getelementptr inbounds ([3 x i8], [3 x i8]* @.str.1, i64 0, i64 0), i32 %50)
  ret i32 0
}

; Function Attrs: argmemonly nounwind willreturn
declare void @llvm.memcpy.p0i8.p0i8.i64(i8* noalias nocapture writeonly, i8* noalias nocapture readonly, i64, i1 immarg) #1

declare dso_local i32 @__isoc99_scanf(i8*, ...) #2

declare dso_local i32 @printf(i8*, ...) #2


!llvm.module.flags = !{!0}
!llvm.ident = !{!1}

!0 = !{i32 1, !"wchar_size", i32 4}
!1 = !{!"clang version 10.0.0-4ubuntu1 "}
